target datalayout = "e-m:e-p270:32:32-p271:32:32-p272:64:64-i64:64-i128:128-f80:128-n8:16:32:64-S128"
target triple = "x86_64-pc-linux-gnu"

%class.Handle = type { ptr }
%class.ThreadShadow = type <{ ptr, ptr, ptr, i32, [4 x i8] }>

@.str = private unnamed_addr constant [40 x i8] c"src/hotspot/share/classfile/modules.cpp\00", align 1
@.str.45 = private unnamed_addr constant [77 x i8] c"During -Xshare:dump, module system cannot be modified after it's initialized\00", align 1
@.str.57 = private unnamed_addr constant [18 x i8] c"to_module is null\00", align 1
@_ZN6Symbol11_vm_symbolsE = external global [0 x ptr], align 8
@_ZN9CDSConfig29_is_dumping_full_module_graphE = external global i8, align 1
@_ZN8Universe19_module_initializedE = external global i8, align 1

; Function Attrs: mustprogress nounwind uwtable
define linkonce_odr hidden noundef ptr @_ZN9vmSymbols39java_lang_UnsupportedOperationExceptionEv() #1 comdat align 2 {
  %1 = load ptr, ptr getelementptr inbounds ([0 x ptr], ptr @_ZN6Symbol11_vm_symbolsE, i64 0, i64 152), align 8
  ret ptr %1
}

; Function Attrs: mustprogress nounwind uwtable
define linkonce_odr hidden noundef zeroext i1 @_ZN8Universe21is_module_initializedEv() #1 comdat align 2 {
  %1 = load i8, ptr @_ZN8Universe19_module_initializedE, align 1
  %2 = trunc i8 %1 to i1
  ret i1 %2
}

; Function Attrs: mustprogress nounwind uwtable
define linkonce_odr hidden noundef zeroext i1 @_ZN9CDSConfig28is_dumping_full_module_graphEv() #1 comdat align 2 {
  %1 = load i8, ptr @_ZN9CDSConfig29_is_dumping_full_module_graphE, align 1
  %2 = trunc i8 %1 to i1
  ret i1 %2
}

; Function Attrs: mustprogress nounwind uwtable
define linkonce_odr hidden noundef ptr @_ZN9vmSymbols30java_lang_NullPointerExceptionEv() #1 comdat align 2 {
  %1 = load ptr, ptr getelementptr inbounds ([0 x ptr], ptr @_ZN6Symbol11_vm_symbolsE, i64 0, i64 150), align 8
  ret ptr %1
}

; Function Attrs: mustprogress nounwind uwtable
define linkonce_odr hidden noundef zeroext i1 @_ZNK6Handle7is_nullEv(ptr noundef nonnull align 8 dereferenceable(8) %0) #1 comdat align 2 {
  %2 = alloca ptr, align 8
  store ptr %0, ptr %2, align 8
  %3 = load ptr, ptr %2, align 8
  %4 = getelementptr inbounds %class.Handle, ptr %3, i32 0, i32 0
  %5 = load ptr, ptr %4, align 8
  %6 = icmp eq ptr %5, null
  ret i1 %6
}

; Function Attrs: mustprogress nounwind uwtable
define linkonce_odr hidden noundef zeroext i1 @_ZNK12ThreadShadow21has_pending_exceptionEv(ptr noundef nonnull align 8 dereferenceable(28) %0) #1 comdat align 2 {
  %2 = alloca ptr, align 8
  store ptr %0, ptr %2, align 8
  %3 = load ptr, ptr %2, align 8
  %4 = getelementptr inbounds %class.ThreadShadow, ptr %3, i32 0, i32 1
  %5 = load ptr, ptr %4, align 8
  %6 = icmp ne ptr %5, null
  ret i1 %6
}

; Function Attrs: mustprogress nounwind uwtable
define hidden void @_ZN7Modules22check_cds_restrictionsEP10JavaThread(ptr noundef %0) #1 align 2 {
  %2 = alloca ptr, align 8
  store ptr %0, ptr %2, align 8
  %3 = call noundef zeroext i1 @_ZN9CDSConfig28is_dumping_full_module_graphEv()
  br i1 %3, label %4, label %9

4:                                                ; preds = %1
  %5 = call noundef zeroext i1 @_ZN8Universe21is_module_initializedEv()
  br i1 %5, label %6, label %9

6:                                                ; preds = %4
  %7 = load ptr, ptr %2, align 8
  %8 = call noundef ptr @_ZN9vmSymbols39java_lang_UnsupportedOperationExceptionEv()
  call void @_ZN10Exceptions10_throw_msgEP10JavaThreadPKciP6SymbolS3_(ptr noundef %7, ptr noundef @.str, i32 noundef 643, ptr noundef %8, ptr noundef @.str.45)
  br label %9

9:                                                ; preds = %6, %4, %1
  ret void
}

; Function Attrs: mustprogress nounwind uwtable
define hidden void @_ZN7Modules28add_module_exports_qualifiedE6HandleP8_jstringS0_P10JavaThread(ptr %0, ptr noundef %1, ptr %2, ptr noundef %3) #1 align 2 {
  %5 = alloca %class.Handle, align 8
  %6 = alloca %class.Handle, align 8
  %7 = alloca ptr, align 8
  %8 = alloca ptr, align 8
  %9 = alloca %class.Handle, align 8
  %10 = alloca %class.Handle, align 8
  %11 = getelementptr inbounds %class.Handle, ptr %5, i32 0, i32 0
  store ptr %0, ptr %11, align 8
  %12 = getelementptr inbounds %class.Handle, ptr %6, i32 0, i32 0
  store ptr %2, ptr %12, align 8
  store ptr %1, ptr %7, align 8
  store ptr %3, ptr %8, align 8
  %13 = load ptr, ptr %8, align 8
  call void @_ZN7Modules22check_cds_restrictionsEP10JavaThread(ptr noundef %13)
  %14 = load ptr, ptr %8, align 8
  %15 = call noundef zeroext i1 @_ZNK12ThreadShadow21has_pending_exceptionEv(ptr noundef nonnull align 8 dereferenceable(28) %14)
  br i1 %15, label %16, label %17

16:                                               ; preds = %4
  br label %32

17:                                               ; preds = %4
  %18 = call noundef zeroext i1 @_ZNK6Handle7is_nullEv(ptr noundef nonnull align 8 dereferenceable(8) %6)
  br i1 %18, label %19, label %22

19:                                               ; preds = %17
  %20 = load ptr, ptr %8, align 8
  %21 = call noundef ptr @_ZN9vmSymbols30java_lang_NullPointerExceptionEv()
  call void @_ZN10Exceptions10_throw_msgEP10JavaThreadPKciP6SymbolS3_(ptr noundef %20, ptr noundef @.str, i32 noundef 756, ptr noundef %21, ptr noundef @.str.57)
  br label %32

22:                                               ; preds = %17
  call void @llvm.memcpy.p0.p0.i64(ptr align 8 %9, ptr align 8 %5, i64 8, i1 false)
  %23 = load ptr, ptr %7, align 8
  call void @llvm.memcpy.p0.p0.i64(ptr align 8 %10, ptr align 8 %6, i64 8, i1 false)
  %24 = load ptr, ptr %8, align 8
  %25 = getelementptr inbounds %class.Handle, ptr %9, i32 0, i32 0
  %26 = load ptr, ptr %25, align 8
  %27 = getelementptr inbounds %class.Handle, ptr %10, i32 0, i32 0
  %28 = load ptr, ptr %27, align 8
  call void @_ZN7Modules18add_module_exportsE6HandleP8_jstringS0_P10JavaThread(ptr %26, ptr noundef %23, ptr %28, ptr noundef %24)
  %29 = load ptr, ptr %8, align 8
  %30 = call noundef zeroext i1 @_ZNK12ThreadShadow21has_pending_exceptionEv(ptr noundef nonnull align 8 dereferenceable(28) %29)
  br i1 %30, label %31, label %32

31:                                               ; preds = %22
  br label %32

32:                                               ; preds = %31, %22, %19, %16
  ret void
}