; Function Attrs: mustprogress nounwind uwtable
define hidden void @_ZN7Modules28add_module_exports_qualifiedE6HandleP8_jstringS0_P10JavaThread(ptr %0, ptr noundef %1, ptr %2, ptr noundef %3) local_unnamed_addr #0 align 2 {
  %5 = load i8, ptr @_ZN9CDSConfig29_is_dumping_full_module_graphE, align 1
  %6 = trunc i8 %5 to i1
  br i1 %6, label %7, label %_ZN7Modules22check_cds_restrictionsEP10JavaThread.exit

7:                                                ; preds = %4
  %8 = load i8, ptr @_ZN8Universe19_module_initializedE, align 1
  %9 = trunc i8 %8 to i1
  br i1 %9, label %10, label %_ZN7Modules22check_cds_restrictionsEP10JavaThread.exit

10:                                               ; preds = %7
  %11 = load ptr, ptr getelementptr inbounds (i8, ptr @_ZN6Symbol11_vm_symbolsE, i64 1216), align 8
  tail call void @_ZN10Exceptions10_throw_msgEP10JavaThreadPKciP6SymbolS3_(ptr noundef %3, ptr noundef nonnull @.str, i32 noundef 643, ptr noundef %11, ptr noundef nonnull @.str.45) #13
  br label %_ZN7Modules22check_cds_restrictionsEP10JavaThread.exit

_ZN7Modules22check_cds_restrictionsEP10JavaThread.exit: ; preds = %4, %7, %10
  %12 = getelementptr inbounds i8, ptr %3, i64 8
  %13 = load ptr, ptr %12, align 8
  %.not = icmp eq ptr %13, null
  br i1 %.not, label %14, label %19

14:                                               ; preds = %_ZN7Modules22check_cds_restrictionsEP10JavaThread.exit
  %15 = icmp eq ptr %2, null
  br i1 %15, label %16, label %18

16:                                               ; preds = %14
  %17 = load ptr, ptr getelementptr inbounds (i8, ptr @_ZN6Symbol11_vm_symbolsE, i64 1200), align 8
  tail call void @_ZN10Exceptions10_throw_msgEP10JavaThreadPKciP6SymbolS3_(ptr noundef nonnull %3, ptr noundef nonnull @.str, i32 noundef 756, ptr noundef %17, ptr noundef nonnull @.str.57) #13
  br label %19

18:                                               ; preds = %14
  tail call void @_ZN7Modules18add_module_exportsE6HandleP8_jstringS0_P10JavaThread(ptr %0, ptr noundef %1, ptr nonnull %2, ptr noundef nonnull %3)
  br label %19

19:                                               ; preds = %18, %_ZN7Modules22check_cds_restrictionsEP10JavaThread.exit, %16
  ret void
}